; Function Attrs: mustprogress uwtable
define void @_ZN15TCPStreamDialog15transformYRangeERK8QCPRange(ptr noundef nonnull align 8 dereferenceable(584) %0, ptr nocapture noundef nonnull readonly align 8 dereferenceable(16) %1) local_unnamed_addr #2 align 2 {
  %3 = alloca %class.QLineF, align 8
  %4 = alloca %class.QLineF, align 8
  %5 = getelementptr inbounds i8, ptr %0, i64 392
  %6 = getelementptr inbounds i8, ptr %0, i64 464
  %7 = load i16, ptr %6, align 8
  %8 = and i16 %7, 992
  %9 = icmp eq i16 %8, 0
  br i1 %9, label %10, label %13

10:                                               ; preds = %2
  %11 = and i16 %7, 31
  %12 = zext nneg i16 %11 to i32
  br label %_ZNK10QTransform10isIdentityEv.exit

13:                                               ; preds = %2
  %14 = tail call noundef i32 @_ZNK10QTransform4typeEv(ptr noundef nonnull align 8 dereferenceable(74) %5)
  br label %_ZNK10QTransform10isIdentityEv.exit

_ZNK10QTransform10isIdentityEv.exit:              ; preds = %10, %13
  %.0.i.i = phi i32 [ %12, %10 ], [ %14, %13 ]
  %15 = icmp eq i32 %.0.i.i, 0
  br i1 %15, label %34, label %16

16:                                               ; preds = %_ZNK10QTransform10isIdentityEv.exit
  %17 = getelementptr inbounds i8, ptr %0, i64 64
  %18 = load ptr, ptr %17, align 8
  %19 = getelementptr inbounds i8, ptr %18, i64 232
  %20 = load ptr, ptr %19, align 8
  %21 = load double, ptr %1, align 8
  %22 = getelementptr inbounds i8, ptr %1, i64 8
  %23 = load double, ptr %22, align 8
  store double 1.000000e+00, ptr %3, align 8
  %24 = getelementptr inbounds i8, ptr %3, i64 8
  store double %21, ptr %24, align 8
  %25 = getelementptr inbounds i8, ptr %3, i64 16
  store double 1.000000e+00, ptr %25, align 8
  %26 = getelementptr inbounds i8, ptr %3, i64 24
  store double %23, ptr %26, align 8
  call void @_ZNK10QTransform3mapERK6QLineF(ptr dead_on_unwind nonnull writable sret(%class.QLineF) align 8 %4, ptr noundef nonnull align 8 dereferenceable(74) %5, ptr noundef nonnull align 8 dereferenceable(32) %3)
  %27 = getelementptr inbounds i8, ptr %20, i64 64
  %28 = load ptr, ptr %27, align 8
  %29 = getelementptr inbounds i8, ptr %4, i64 24
  %30 = load double, ptr %29, align 8
  call void @_ZN7QCPAxis13setRangeUpperEd(ptr noundef nonnull align 8 dereferenceable(472) %28, double noundef %30)
  %31 = load ptr, ptr %27, align 8
  %32 = getelementptr inbounds i8, ptr %4, i64 8
  %33 = load double, ptr %32, align 8
  call void @_ZN7QCPAxis13setRangeLowerEd(ptr noundef nonnull align 8 dereferenceable(472) %31, double noundef %33)
  br label %34

34:                                               ; preds = %_ZNK10QTransform10isIdentityEv.exit, %16
  ret void
}